target datalayout = "e-m:e-p270:32:32-p271:32:32-p272:64:64-i64:64-i128:128-f80:128-n8:16:32:64-S128"
target triple = "x86_64-pc-linux-gnu"

%struct.AVFilmGrainAFGS1Params = type { i32, [8 x ptr] }

; Function Attrs: nounwind uwtable
define void @ff_aom_uninit_film_grain_params(ptr noundef %0) #0 {
  %2 = alloca ptr, align 8
  %3 = alloca i32, align 4
  store ptr %0, ptr %2, align 8, !tbaa !47
  call void @llvm.lifetime.start.p0(i64 4, ptr %3) #9
  store i32 0, ptr %3, align 4, !tbaa !30
  br label %4

4:                                                ; preds = %15, %1
  %5 = load i32, ptr %3, align 4, !tbaa !30
  %6 = sext i32 %5 to i64
  %7 = icmp ult i64 %6, 8
  br i1 %7, label %9, label %8

8:                                                ; preds = %4
  call void @llvm.lifetime.end.p0(i64 4, ptr %3) #9
  br label %18

9:                                                ; preds = %4
  %10 = load ptr, ptr %2, align 8, !tbaa !47
  %11 = getelementptr inbounds nuw %struct.AVFilmGrainAFGS1Params, ptr %10, i32 0, i32 1
  %12 = load i32, ptr %3, align 4, !tbaa !30
  %13 = sext i32 %12 to i64
  %14 = getelementptr inbounds [8 x ptr], ptr %11, i64 0, i64 %13
  call void @av_buffer_unref(ptr noundef %14)
  br label %15

15:                                               ; preds = %9
  %16 = load i32, ptr %3, align 4, !tbaa !30
  %17 = add nsw i32 %16, 1
  store i32 %17, ptr %3, align 4, !tbaa !30
  br label %4, !llvm.loop !89

18:                                               ; preds = %8
  %19 = load ptr, ptr %2, align 8, !tbaa !47
  %20 = getelementptr inbounds nuw %struct.AVFilmGrainAFGS1Params, ptr %19, i32 0, i32 0
  store i32 0, ptr %20, align 8, !tbaa !51
  ret void
}