; Function Attrs: nounwind uwtable
define void @ff_aom_uninit_film_grain_params(ptr noundef %0) local_unnamed_addr #0 {
  %2 = getelementptr inbounds nuw i8, ptr %0, i64 8
  br label %4

3:                                                ; preds = %4
  store i32 0, ptr %0, align 8, !tbaa !91
  ret void

4:                                                ; preds = %1, %4
  %indvars.iv = phi i64 [ 0, %1 ], [ %indvars.iv.next, %4 ]
  %5 = getelementptr inbounds nuw [8 x ptr], ptr %2, i64 0, i64 %indvars.iv
  tail call void @av_buffer_unref(ptr noundef nonnull %5) #7
  %indvars.iv.next = add nuw nsw i64 %indvars.iv, 1
  %exitcond.not = icmp eq i64 %indvars.iv.next, 8
  br i1 %exitcond.not, label %3, label %4, !llvm.loop !118
}